; Function Attrs: mustprogress nofree norecurse nosync nounwind willreturn memory(none) uwtable
define range(i32 -1, 16) i32 @OPENSSL_hexchar2int(i8 noundef zeroext %0) local_unnamed_addr #11 {
  %switch.tableidx = add i8 %0, -48
  %2 = icmp ult i8 %switch.tableidx, 55
  br i1 %2, label %switch.lookup, label %4

switch.lookup:                                    ; preds = %1
  %3 = zext nneg i8 %switch.tableidx to i64
  %switch.gep = getelementptr inbounds nuw [55 x i32], ptr @switch.table.OPENSSL_hexchar2int, i64 0, i64 %3
  %switch.load = load i32, ptr %switch.gep, align 4
  br label %4

4:                                                ; preds = %1, %switch.lookup
  %.0 = phi i32 [ %switch.load, %switch.lookup ], [ -1, %1 ]
  ret i32 %.0
}